target datalayout = "e-m:e-p270:32:32-p271:32:32-p272:64:64-i64:64-i128:128-f80:128-n8:16:32:64-S128"
target triple = "x86_64-pc-linux-gnu"

%"class.OpenColorIO_v2_5dev::MixingSliderImpl" = type { %"class.OpenColorIO_v2_5dev::MixingSlider", ptr, float, float }
%"class.OpenColorIO_v2_5dev::MixingSlider" = type { ptr }

; Function Attrs: inlinehint mustprogress nounwind uwtable
define linkonce_odr noundef float @_ZSt3powff(float noundef %0, float noundef %1) #3 comdat {
  %3 = alloca float, align 4
  %4 = alloca float, align 4
  store float %0, ptr %3, align 4, !tbaa !20
  store float %1, ptr %4, align 4, !tbaa !20
  %5 = load float, ptr %3, align 4, !tbaa !20
  %6 = load float, ptr %4, align 4, !tbaa !20
  %7 = call float @powf(float noundef %5, float noundef %6) #20, !tbaa !123
  ret float %7
}

; Function Attrs: inlinehint mustprogress nounwind uwtable
define linkonce_odr noundef float @_ZSt5log10f(float noundef %0) #3 comdat {
  %2 = alloca float, align 4
  store float %0, ptr %2, align 4, !tbaa !20
  %3 = load float, ptr %2, align 4, !tbaa !20
  %4 = call float @log10f(float noundef %3) #20, !tbaa !123
  ret float %4
}

; Function Attrs: mustprogress uwtable
define internal noundef float @_ZN19OpenColorIO_v2_5dev12_GLOBAL__N_118linearToPerceptualEf(float noundef %0) #2 {
  %2 = alloca float, align 4
  %3 = alloca float, align 4
  store float %0, ptr %3, align 4, !tbaa !20
  %4 = load float, ptr %3, align 4, !tbaa !20
  %5 = fcmp ole float %4, 0.000000e+00
  br i1 %5, label %6, label %9

6:                                                ; preds = %1
  %7 = load float, ptr %3, align 4, !tbaa !20
  %8 = fmul float %7, 5.000000e-01
  store float %8, ptr %2, align 4
  br label %19

9:                                                ; preds = %1
  %10 = load float, ptr %3, align 4, !tbaa !20
  %11 = fcmp ogt float %10, 0x3FC70A3D80000000
  br i1 %11, label %12, label %16

12:                                               ; preds = %9
  %13 = load float, ptr %3, align 4, !tbaa !20
  %14 = call noundef float @_ZSt5log10f(float noundef %13)
  %15 = call float @llvm.fmuladd.f32(float %14, float 0x3FE19999A0000000, float 0x3FEAAF0400000000)
  store float %15, ptr %2, align 4
  br label %19

16:                                               ; preds = %9
  %17 = load float, ptr %3, align 4, !tbaa !20
  %18 = call noundef float @_ZSt3powff(float noundef %17, float noundef 5.000000e-01)
  store float %18, ptr %2, align 4
  br label %19

19:                                               ; preds = %16, %12, %6
  %20 = load float, ptr %2, align 4
  ret float %20
}

; Function Attrs: inlinehint mustprogress nounwind uwtable
define linkonce_odr noundef nonnull align 4 dereferenceable(4) ptr @_ZSt3maxIfERKT_S2_S2_(ptr noundef nonnull align 4 dereferenceable(4) %0, ptr noundef nonnull align 4 dereferenceable(4) %1) #3 comdat {
  %3 = alloca ptr, align 8
  %4 = alloca ptr, align 8
  %5 = alloca ptr, align 8
  store ptr %0, ptr %4, align 8, !tbaa !21
  store ptr %1, ptr %5, align 8, !tbaa !21
  %6 = load ptr, ptr %4, align 8, !tbaa !21
  %7 = load float, ptr %6, align 4, !tbaa !20
  %8 = load ptr, ptr %5, align 8, !tbaa !21
  %9 = load float, ptr %8, align 4, !tbaa !20
  %10 = fcmp olt float %7, %9
  br i1 %10, label %11, label %13

11:                                               ; preds = %2
  %12 = load ptr, ptr %5, align 8, !tbaa !21
  store ptr %12, ptr %3, align 8
  br label %15

13:                                               ; preds = %2
  %14 = load ptr, ptr %4, align 8, !tbaa !21
  store ptr %14, ptr %3, align 8
  br label %15

15:                                               ; preds = %13, %11
  %16 = load ptr, ptr %3, align 8
  ret ptr %16
}

; Function Attrs: mustprogress nounwind uwtable
define hidden noundef float @_ZNK19OpenColorIO_v2_5dev16MixingSliderImpl16getSliderMaxEdgeEv(ptr noundef nonnull align 8 dereferenceable(24) %0) unnamed_addr #0 align 2 personality ptr @__gxx_personality_v0 {
  %2 = alloca ptr, align 8
  %3 = alloca float, align 4
  store ptr %0, ptr %2, align 8, !tbaa !3
  %4 = load ptr, ptr %2, align 8
  %5 = getelementptr inbounds nuw %"class.OpenColorIO_v2_5dev::MixingSliderImpl", ptr %4, i32 0, i32 1
  %6 = load ptr, ptr %5, align 8, !tbaa !19
  %7 = load ptr, ptr %6, align 8, !tbaa !10
  %8 = getelementptr inbounds ptr, ptr %7, i64 5
  %9 = load ptr, ptr %8, align 8
  %10 = call noundef zeroext i1 %9(ptr noundef nonnull align 8 dereferenceable(8) %6) #20
  call void @llvm.lifetime.start.p0(i64 4, ptr %3) #20
  br i1 %10, label %21, label %11

11:                                               ; preds = %1
  %12 = getelementptr inbounds nuw %"class.OpenColorIO_v2_5dev::MixingSliderImpl", ptr %4, i32 0, i32 3
  %13 = getelementptr inbounds nuw %"class.OpenColorIO_v2_5dev::MixingSliderImpl", ptr %4, i32 0, i32 2
  %14 = load float, ptr %13, align 8, !tbaa !12
  %15 = fadd float %14, 0x3F847AE140000000
  store float %15, ptr %3, align 4, !tbaa !20
  %16 = invoke noundef nonnull align 4 dereferenceable(4) ptr @_ZSt3maxIfERKT_S2_S2_(ptr noundef nonnull align 4 dereferenceable(4) %12, ptr noundef nonnull align 4 dereferenceable(4) %3)
          to label %17 unwind label %26

17:                                               ; preds = %11
  %18 = load float, ptr %16, align 4, !tbaa !20
  %19 = invoke noundef float @_ZN19OpenColorIO_v2_5dev12_GLOBAL__N_118linearToPerceptualEf(float noundef %18)
          to label %20 unwind label %26

20:                                               ; preds = %17
  br label %24

21:                                               ; preds = %1
  %22 = getelementptr inbounds nuw %"class.OpenColorIO_v2_5dev::MixingSliderImpl", ptr %4, i32 0, i32 3
  %23 = load float, ptr %22, align 4, !tbaa !16
  br label %24

24:                                               ; preds = %21, %20
  %25 = phi float [ %19, %20 ], [ %23, %21 ]
  call void @llvm.lifetime.end.p0(i64 4, ptr %3) #20
  ret float %25

26:                                               ; preds = %17, %11
  %27 = landingpad { ptr, i32 }
          catch ptr null
  %28 = extractvalue { ptr, i32 } %27, 0
  call void @__clang_call_terminate(ptr %28) #21
  unreachable
}